target datalayout = "e-m:e-p270:32:32-p271:32:32-p272:64:64-i64:64-i128:128-f80:128-n8:16:32:64-S128"
target triple = "x86_64-pc-linux-gnu"

@stderr = external global ptr, align 8
@infile = internal global ptr null, align 8
@.str.11 = private unnamed_addr constant [4 x i8] c"%s\0A\00", align 1
@.str.16 = private unnamed_addr constant [27 x i8] c"Premature EOF in JPEG file\00", align 1

; Function Attrs: nounwind uwtable
define internal i32 @read_2_bytes() #0 {
  %1 = alloca i32, align 4
  %2 = alloca i32, align 4
  %3 = load ptr, ptr @infile, align 8
  %4 = call i32 @getc(ptr noundef %3)
  store i32 %4, ptr %1, align 4
  %5 = load i32, ptr %1, align 4
  %6 = icmp eq i32 %5, -1
  br i1 %6, label %7, label %10

7:                                                ; preds = %0
  %8 = load ptr, ptr @stderr, align 8
  %9 = call i32 (ptr, ptr, ...) @fprintf(ptr noundef %8, ptr noundef @.str.11, ptr noundef @.str.16) #6
  call void @exit(i32 noundef 1) #7
  unreachable

10:                                               ; preds = %0
  %11 = load ptr, ptr @infile, align 8
  %12 = call i32 @getc(ptr noundef %11)
  store i32 %12, ptr %2, align 4
  %13 = load i32, ptr %2, align 4
  %14 = icmp eq i32 %13, -1
  br i1 %14, label %15, label %18

15:                                               ; preds = %10
  %16 = load ptr, ptr @stderr, align 8
  %17 = call i32 (ptr, ptr, ...) @fprintf(ptr noundef %16, ptr noundef @.str.11, ptr noundef @.str.16) #6
  call void @exit(i32 noundef 1) #7
  unreachable

18:                                               ; preds = %10
  %19 = load i32, ptr %1, align 4
  %20 = shl i32 %19, 8
  %21 = load i32, ptr %2, align 4
  %22 = add i32 %20, %21
  ret i32 %22
}