; Function Attrs: nounwind uwtable
define internal fastcc noundef i32 @read_2_bytes() unnamed_addr #3 {
  %1 = load ptr, ptr @infile, align 8
  %2 = tail call i32 @getc(ptr noundef %1)
  %3 = icmp eq i32 %2, -1
  br i1 %3, label %4, label %7

4:                                                ; preds = %0
  %5 = load ptr, ptr @stderr, align 8
  %6 = tail call i32 (ptr, ptr, ...) @fprintf(ptr noundef %5, ptr noundef nonnull @.str.11, ptr noundef nonnull @.str.16) #11
  tail call void @exit(i32 noundef 1) #12
  unreachable

7:                                                ; preds = %0
  %8 = load ptr, ptr @infile, align 8
  %9 = tail call i32 @getc(ptr noundef %8)
  %10 = icmp eq i32 %9, -1
  br i1 %10, label %11, label %14

11:                                               ; preds = %7
  %12 = load ptr, ptr @stderr, align 8
  %13 = tail call i32 (ptr, ptr, ...) @fprintf(ptr noundef %12, ptr noundef nonnull @.str.11, ptr noundef nonnull @.str.16) #11
  tail call void @exit(i32 noundef 1) #12
  unreachable

14:                                               ; preds = %7
  %15 = shl i32 %2, 8
  %16 = add i32 %9, %15
  ret i32 %16
}